; ModuleID = '24/2700.c'
source_filename = "24/2700.c"
target datalayout = "e-m:e-p270:32:32-p271:32:32-p272:64:64-i64:64-f80:128-n8:16:32:64-S128"
target triple = "x86_64-pc-linux-gnu"

@.str = private unnamed_addr constant [3 x i8] c"%d\00", align 1
@.str.1 = private unnamed_addr constant [3 x i8] c"%s\00", align 1
@.str.2 = private unnamed_addr constant [4 x i8] c"%s\0A\00", align 1

; Function Attrs: noinline nounwind uwtable
define dso_local i32 @main() #0 {
  %1 = alloca i32, align 4
  %2 = alloca i32, align 4
  %3 = alloca i32, align 4
  %4 = alloca [210 x i32], align 16
  %5 = alloca [210 x [30 x i8]], align 16
  %6 = alloca i32, align 4
  %7 = alloca i32, align 4
  store i32 0, i32* %1, align 4
  %8 = call i32 (i8*, ...) @__isoc99_scanf(i8* getelementptr inbounds ([3 x i8], [3 x i8]* @.str, i64 0, i64 0), i32* %2)
  store i32 0, i32* %3, align 4
  br label %9

9:                                                ; preds = %19, %0
  %10 = load i32, i32* %3, align 4
  %11 = load i32, i32* %2, align 4
  %12 = icmp slt i32 %10, %11
  br i1 %12, label %13, label %22

13:                                               ; preds = %9
  %14 = load i32, i32* %3, align 4
  %15 = sext i32 %14 to i64
  %16 = getelementptr inbounds [210 x [30 x i8]], [210 x [30 x i8]]* %5, i64 0, i64 %15
  %17 = getelementptr inbounds [30 x i8], [30 x i8]* %16, i64 0, i64 0
  %18 = call i32 (i8*, ...) @__isoc99_scanf(i8* getelementptr inbounds ([3 x i8], [3 x i8]* @.str.1, i64 0, i64 0), i8* %17)
  br label %19

19:                                               ; preds = %13
  %20 = load i32, i32* %3, align 4
  %21 = add nsw i32 %20, 1
  store i32 %21, i32* %3, align 4
  br label %9

22:                                               ; preds = %9
  store i32 0, i32* %3, align 4
  br label %23

23:                                               ; preds = %37, %22
  %24 = load i32, i32* %3, align 4
  %25 = load i32, i32* %2, align 4
  %26 = icmp slt i32 %24, %25
  br i1 %26, label %27, label %40

27:                                               ; preds = %23
  %28 = load i32, i32* %3, align 4
  %29 = sext i32 %28 to i64
  %30 = getelementptr inbounds [210 x [30 x i8]], [210 x [30 x i8]]* %5, i64 0, i64 %29
  %31 = getelementptr inbounds [30 x i8], [30 x i8]* %30, i64 0, i64 0
  %32 = call i64 @strlen(i8* %31) #3
  %33 = trunc i64 %32 to i32
  %34 = load i32, i32* %3, align 4
  %35 = sext i32 %34 to i64
  %36 = getelementptr inbounds [210 x i32], [210 x i32]* %4, i64 0, i64 %35
  store i32 %33, i32* %36, align 4
  br label %37

37:                                               ; preds = %27
  %38 = load i32, i32* %3, align 4
  %39 = add nsw i32 %38, 1
  store i32 %39, i32* %3, align 4
  br label %23

40:                                               ; preds = %23
  %41 = getelementptr inbounds [210 x i32], [210 x i32]* %4, i64 0, i64 0
  %42 = load i32, i32* %41, align 16
  store i32 %42, i32* %6, align 4
  store i32 0, i32* %3, align 4
  br label %43

43:                                               ; preds = %60, %40
  %44 = load i32, i32* %3, align 4
  %45 = load i32, i32* %2, align 4
  %46 = icmp slt i32 %44, %45
  br i1 %46, label %47, label %63

47:                                               ; preds = %43
  %48 = load i32, i32* %3, align 4
  %49 = sext i32 %48 to i64
  %50 = getelementptr inbounds [210 x i32], [210 x i32]* %4, i64 0, i64 %49
  %51 = load i32, i32* %50, align 4
  %52 = load i32, i32* %6, align 4
  %53 = icmp sge i32 %51, %52
  br i1 %53, label %54, label %59

54:                                               ; preds = %47
  %55 = load i32, i32* %3, align 4
  %56 = sext i32 %55 to i64
  %57 = getelementptr inbounds [210 x i32], [210 x i32]* %4, i64 0, i64 %56
  %58 = load i32, i32* %57, align 4
  store i32 %58, i32* %6, align 4
  br label %59

59:                                               ; preds = %54, %47
  br label %60

60:                                               ; preds = %59
  %61 = load i32, i32* %3, align 4
  %62 = add nsw i32 %61, 1
  store i32 %62, i32* %3, align 4
  br label %43

63:                                               ; preds = %43
  %64 = load i32, i32* %6, align 4
  store i32 %64, i32* %7, align 4
  store i32 0, i32* %3, align 4
  br label %65

65:                                               ; preds = %82, %63
  %66 = load i32, i32* %3, align 4
  %67 = load i32, i32* %2, align 4
  %68 = icmp slt i32 %66, %67
  br i1 %68, label %69, label %85

69:                                               ; preds = %65
  %70 = load i32, i32* %3, align 4
  %71 = sext i32 %70 to i64
  %72 = getelementptr inbounds [210 x i32], [210 x i32]* %4, i64 0, i64 %71
  %73 = load i32, i32* %72, align 4
  %74 = load i32, i32* %7, align 4
  %75 = icmp sle i32 %73, %74
  br i1 %75, label %76, label %81

76:                                               ; preds = %69
  %77 = load i32, i32* %3, align 4
  %78 = sext i32 %77 to i64
  %79 = getelementptr inbounds [210 x i32], [210 x i32]* %4, i64 0, i64 %78
  %80 = load i32, i32* %79, align 4
  store i32 %80, i32* %7, align 4
  br label %81

81:                                               ; preds = %76, %69
  br label %82

82:                                               ; preds = %81
  %83 = load i32, i32* %3, align 4
  %84 = add nsw i32 %83, 1
  store i32 %84, i32* %3, align 4
  br label %65

85:                                               ; preds = %65
  store i32 0, i32* %3, align 4
  br label %86

86:                                               ; preds = %104, %85
  %87 = load i32, i32* %3, align 4
  %88 = load i32, i32* %2, align 4
  %89 = icmp slt i32 %87, %88
  br i1 %89, label %90, label %107

90:                                               ; preds = %86
  %91 = load i32, i32* %3, align 4
  %92 = sext i32 %91 to i64
  %93 = getelementptr inbounds [210 x i32], [210 x i32]* %4, i64 0, i64 %92
  %94 = load i32, i32* %93, align 4
  %95 = load i32, i32* %6, align 4
  %96 = icmp eq i32 %94, %95
  br i1 %96, label %97, label %103

97:                                               ; preds = %90
  %98 = load i32, i32* %3, align 4
  %99 = sext i32 %98 to i64
  %100 = getelementptr inbounds [210 x [30 x i8]], [210 x [30 x i8]]* %5, i64 0, i64 %99
  %101 = getelementptr inbounds [30 x i8], [30 x i8]* %100, i64 0, i64 0
  %102 = call i32 (i8*, ...) @printf(i8* getelementptr inbounds ([4 x i8], [4 x i8]* @.str.2, i64 0, i64 0), i8* %101)
  br label %107

103:                                              ; preds = %90
  br label %104

104:                                              ; preds = %103
  %105 = load i32, i32* %3, align 4
  %106 = add nsw i32 %105, 1
  store i32 %106, i32* %3, align 4
  br label %86

107:                                              ; preds = %97, %86
  store i32 0, i32* %3, align 4
  br label %108

108:                                              ; preds = %126, %107
  %109 = load i32, i32* %3, align 4
  %110 = load i32, i32* %2, align 4
  %111 = icmp slt i32 %109, %110
  br i1 %111, label %112, label %129

112:                                              ; preds = %108
  %113 = load i32, i32* %3, align 4
  %114 = sext i32 %113 to i64
  %115 = getelementptr inbounds [210 x i32], [210 x i32]* %4, i64 0, i64 %114
  %116 = load i32, i32* %115, align 4
  %117 = load i32, i32* %7, align 4
  %118 = icmp eq i32 %116, %117
  br i1 %118, label %119, label %125

119:                                              ; preds = %112
  %120 = load i32, i32* %3, align 4
  %121 = sext i32 %120 to i64
  %122 = getelementptr inbounds [210 x [30 x i8]], [210 x [30 x i8]]* %5, i64 0, i64 %121
  %123 = getelementptr inbounds [30 x i8], [30 x i8]* %122, i64 0, i64 0
  %124 = call i32 (i8*, ...) @printf(i8* getelementptr inbounds ([3 x i8], [3 x i8]* @.str.1, i64 0, i64 0), i8* %123)
  br label %129

125:                                              ; preds = %112
  br label %126

126:                                              ; preds = %125
  %127 = load i32, i32* %3, align 4
  %128 = add nsw i32 %127, 1
  store i32 %128, i32* %3, align 4
  br label %108

129:                                              ; preds = %119, %108
  ret i32 0
}

declare dso_local i32 @__isoc99_scanf(i8*, ...) #1

; Function Attrs: nounwind readonly
declare dso_local i64 @strlen(i8*) #2

declare dso_local i32 @printf(i8*, ...) #1


!llvm.module.flags = !{!0}
!llvm.ident = !{!1}

!0 = !{i32 1, !"wchar_size", i32 4}
!1 = !{!"clang version 10.0.0-4ubuntu1 "}
